target datalayout = "e-m:e-p270:32:32-p271:32:32-p272:64:64-i64:64-i128:128-f80:128-n8:16:32:64-S128"
target triple = "x86_64-pc-linux-gnu"

%struct.mbedtls_psa_cipher_operation_t = type { i32, i8, i8, %union.anon }
%union.anon = type { %struct.mbedtls_cipher_context_t }
%struct.mbedtls_cipher_context_t = type { ptr, i32, i32, ptr, ptr, [16 x i8], i64, [16 x i8], i64, ptr, ptr }
%struct.mbedtls_cipher_info_t = type { ptr, i32 }

; Function Attrs: inlinehint nounwind uwtable
define internal i64 @mbedtls_cipher_info_get_block_size(ptr noundef %0) #5 {
  %2 = alloca i64, align 8
  %3 = alloca ptr, align 8
  store ptr %0, ptr %3, align 8, !tbaa !19
  %4 = load ptr, ptr %3, align 8, !tbaa !19
  %5 = icmp eq ptr %4, null
  br i1 %5, label %6, label %7

6:                                                ; preds = %1
  store i64 0, ptr %2, align 8
  br label %13

7:                                                ; preds = %1
  %8 = load ptr, ptr %3, align 8, !tbaa !19
  %9 = getelementptr inbounds nuw %struct.mbedtls_cipher_info_t, ptr %8, i32 0, i32 1
  %10 = load i32, ptr %9, align 8
  %11 = and i32 %10, 31
  %12 = zext i32 %11 to i64
  store i64 %12, ptr %2, align 8
  br label %13

13:                                               ; preds = %7, %6
  %14 = load i64, ptr %2, align 8
  ret i64 %14
}

; Function Attrs: nounwind uwtable
define internal i32 @psa_cipher_update_ecb(ptr noundef %0, ptr noundef %1, i64 noundef %2, ptr noundef %3, ptr noundef %4) #0 {
  %6 = alloca i32, align 4
  %7 = alloca ptr, align 8
  %8 = alloca ptr, align 8
  %9 = alloca i64, align 8
  %10 = alloca ptr, align 8
  %11 = alloca ptr, align 8
  %12 = alloca i32, align 4
  %13 = alloca i64, align 8
  %14 = alloca i64, align 8
  %15 = alloca i64, align 8
  %16 = alloca i32, align 4
  store ptr %0, ptr %7, align 8, !tbaa !30
  store ptr %1, ptr %8, align 8, !tbaa !17
  store i64 %2, ptr %9, align 8, !tbaa !13
  store ptr %3, ptr %10, align 8, !tbaa !17
  store ptr %4, ptr %11, align 8, !tbaa !9
  call void @llvm.lifetime.start.p0(i64 4, ptr %12) #7
  store i32 -151, ptr %12, align 4, !tbaa !3
  call void @llvm.lifetime.start.p0(i64 8, ptr %13) #7
  %17 = load ptr, ptr %7, align 8, !tbaa !30
  %18 = getelementptr inbounds nuw %struct.mbedtls_cipher_context_t, ptr %17, i32 0, i32 0
  %19 = load ptr, ptr %18, align 8, !tbaa !32
  %20 = call i64 @mbedtls_cipher_info_get_block_size(ptr noundef %19)
  store i64 %20, ptr %13, align 8, !tbaa !13
  call void @llvm.lifetime.start.p0(i64 8, ptr %14) #7
  store i64 0, ptr %14, align 8, !tbaa !13
  %21 = load ptr, ptr %11, align 8, !tbaa !9
  store i64 0, ptr %21, align 8, !tbaa !13
  %22 = load i64, ptr %9, align 8, !tbaa !13
  %23 = icmp eq i64 %22, 0
  br i1 %23, label %24, label %25

24:                                               ; preds = %5
  store i32 0, ptr %12, align 4, !tbaa !3
  br label %139

25:                                               ; preds = %5
  %26 = load ptr, ptr %7, align 8, !tbaa !30
  %27 = getelementptr inbounds nuw %struct.mbedtls_cipher_context_t, ptr %26, i32 0, i32 6
  %28 = load i64, ptr %27, align 8, !tbaa !35
  %29 = icmp ugt i64 %28, 0
  br i1 %29, label %30, label %92

30:                                               ; preds = %25
  call void @llvm.lifetime.start.p0(i64 8, ptr %15) #7
  %31 = load i64, ptr %13, align 8, !tbaa !13
  %32 = load ptr, ptr %7, align 8, !tbaa !30
  %33 = getelementptr inbounds nuw %struct.mbedtls_cipher_context_t, ptr %32, i32 0, i32 6
  %34 = load i64, ptr %33, align 8, !tbaa !35
  %35 = sub i64 %31, %34
  store i64 %35, ptr %15, align 8, !tbaa !13
  %36 = load i64, ptr %9, align 8, !tbaa !13
  %37 = load i64, ptr %15, align 8, !tbaa !13
  %38 = icmp ult i64 %36, %37
  br i1 %38, label %39, label %41

39:                                               ; preds = %30
  %40 = load i64, ptr %9, align 8, !tbaa !13
  store i64 %40, ptr %15, align 8, !tbaa !13
  br label %41

41:                                               ; preds = %39, %30
  %42 = load ptr, ptr %7, align 8, !tbaa !30
  %43 = getelementptr inbounds nuw %struct.mbedtls_cipher_context_t, ptr %42, i32 0, i32 5
  %44 = load ptr, ptr %7, align 8, !tbaa !30
  %45 = getelementptr inbounds nuw %struct.mbedtls_cipher_context_t, ptr %44, i32 0, i32 6
  %46 = load i64, ptr %45, align 8, !tbaa !35
  %47 = getelementptr inbounds nuw [16 x i8], ptr %43, i64 0, i64 %46
  %48 = load ptr, ptr %8, align 8, !tbaa !17
  %49 = load i64, ptr %15, align 8, !tbaa !13
  call void @llvm.memcpy.p0.p0.i64(ptr align 1 %47, ptr align 1 %48, i64 %49, i1 false)
  %50 = load i64, ptr %15, align 8, !tbaa !13
  %51 = load i64, ptr %9, align 8, !tbaa !13
  %52 = sub i64 %51, %50
  store i64 %52, ptr %9, align 8, !tbaa !13
  %53 = load i64, ptr %15, align 8, !tbaa !13
  %54 = load ptr, ptr %8, align 8, !tbaa !17
  %55 = getelementptr inbounds nuw i8, ptr %54, i64 %53
  store ptr %55, ptr %8, align 8, !tbaa !17
  %56 = load i64, ptr %15, align 8, !tbaa !13
  %57 = load ptr, ptr %7, align 8, !tbaa !30
  %58 = getelementptr inbounds nuw %struct.mbedtls_cipher_context_t, ptr %57, i32 0, i32 6
  %59 = load i64, ptr %58, align 8, !tbaa !35
  %60 = add i64 %59, %56
  store i64 %60, ptr %58, align 8, !tbaa !35
  %61 = load ptr, ptr %7, align 8, !tbaa !30
  %62 = getelementptr inbounds nuw %struct.mbedtls_cipher_context_t, ptr %61, i32 0, i32 6
  %63 = load i64, ptr %62, align 8, !tbaa !35
  %64 = load i64, ptr %13, align 8, !tbaa !13
  %65 = icmp eq i64 %63, %64
  br i1 %65, label %66, label %88

66:                                               ; preds = %41
  %67 = load ptr, ptr %7, align 8, !tbaa !30
  %68 = load ptr, ptr %7, align 8, !tbaa !30
  %69 = getelementptr inbounds nuw %struct.mbedtls_cipher_context_t, ptr %68, i32 0, i32 5
  %70 = getelementptr inbounds [16 x i8], ptr %69, i64 0, i64 0
  %71 = load i64, ptr %13, align 8, !tbaa !13
  %72 = load ptr, ptr %10, align 8, !tbaa !17
  %73 = call i32 @mbedtls_cipher_update(ptr noundef %67, ptr noundef %70, i64 noundef %71, ptr noundef %72, ptr noundef %14)
  %74 = call i32 @mbedtls_to_psa_error(i32 noundef %73)
  store i32 %74, ptr %12, align 4, !tbaa !3
  %75 = load i32, ptr %12, align 4, !tbaa !3
  %76 = icmp ne i32 %75, 0
  br i1 %76, label %77, label %78

77:                                               ; preds = %66
  store i32 2, ptr %16, align 4
  br label %89

78:                                               ; preds = %66
  %79 = load i64, ptr %14, align 8, !tbaa !13
  %80 = load ptr, ptr %10, align 8, !tbaa !17
  %81 = getelementptr inbounds nuw i8, ptr %80, i64 %79
  store ptr %81, ptr %10, align 8, !tbaa !17
  %82 = load i64, ptr %14, align 8, !tbaa !13
  %83 = load ptr, ptr %11, align 8, !tbaa !9
  %84 = load i64, ptr %83, align 8, !tbaa !13
  %85 = add i64 %84, %82
  store i64 %85, ptr %83, align 8, !tbaa !13
  %86 = load ptr, ptr %7, align 8, !tbaa !30
  %87 = getelementptr inbounds nuw %struct.mbedtls_cipher_context_t, ptr %86, i32 0, i32 6
  store i64 0, ptr %87, align 8, !tbaa !35
  br label %88

88:                                               ; preds = %78, %41
  store i32 0, ptr %16, align 4
  br label %89

89:                                               ; preds = %77, %88
  call void @llvm.lifetime.end.p0(i64 8, ptr %15) #7
  %90 = load i32, ptr %16, align 4
  switch i32 %90, label %141 [
    i32 0, label %91
    i32 2, label %139
  ]

91:                                               ; preds = %89
  br label %92

92:                                               ; preds = %91, %25
  br label %93

93:                                               ; preds = %107, %92
  %94 = load i64, ptr %9, align 8, !tbaa !13
  %95 = load i64, ptr %13, align 8, !tbaa !13
  %96 = icmp uge i64 %94, %95
  br i1 %96, label %97, label %121

97:                                               ; preds = %93
  %98 = load ptr, ptr %7, align 8, !tbaa !30
  %99 = load ptr, ptr %8, align 8, !tbaa !17
  %100 = load i64, ptr %13, align 8, !tbaa !13
  %101 = load ptr, ptr %10, align 8, !tbaa !17
  %102 = call i32 @mbedtls_cipher_update(ptr noundef %98, ptr noundef %99, i64 noundef %100, ptr noundef %101, ptr noundef %14)
  %103 = call i32 @mbedtls_to_psa_error(i32 noundef %102)
  store i32 %103, ptr %12, align 4, !tbaa !3
  %104 = load i32, ptr %12, align 4, !tbaa !3
  %105 = icmp ne i32 %104, 0
  br i1 %105, label %106, label %107

106:                                              ; preds = %97
  br label %139

107:                                              ; preds = %97
  %108 = load i64, ptr %13, align 8, !tbaa !13
  %109 = load i64, ptr %9, align 8, !tbaa !13
  %110 = sub i64 %109, %108
  store i64 %110, ptr %9, align 8, !tbaa !13
  %111 = load i64, ptr %13, align 8, !tbaa !13
  %112 = load ptr, ptr %8, align 8, !tbaa !17
  %113 = getelementptr inbounds nuw i8, ptr %112, i64 %111
  store ptr %113, ptr %8, align 8, !tbaa !17
  %114 = load i64, ptr %14, align 8, !tbaa !13
  %115 = load ptr, ptr %10, align 8, !tbaa !17
  %116 = getelementptr inbounds nuw i8, ptr %115, i64 %114
  store ptr %116, ptr %10, align 8, !tbaa !17
  %117 = load i64, ptr %14, align 8, !tbaa !13
  %118 = load ptr, ptr %11, align 8, !tbaa !9
  %119 = load i64, ptr %118, align 8, !tbaa !13
  %120 = add i64 %119, %117
  store i64 %120, ptr %118, align 8, !tbaa !13
  br label %93, !llvm.loop !36

121:                                              ; preds = %93
  %122 = load i64, ptr %9, align 8, !tbaa !13
  %123 = icmp ugt i64 %122, 0
  br i1 %123, label %124, label %138

124:                                              ; preds = %121
  %125 = load ptr, ptr %7, align 8, !tbaa !30
  %126 = getelementptr inbounds nuw %struct.mbedtls_cipher_context_t, ptr %125, i32 0, i32 5
  %127 = load ptr, ptr %7, align 8, !tbaa !30
  %128 = getelementptr inbounds nuw %struct.mbedtls_cipher_context_t, ptr %127, i32 0, i32 6
  %129 = load i64, ptr %128, align 8, !tbaa !35
  %130 = getelementptr inbounds nuw [16 x i8], ptr %126, i64 0, i64 %129
  %131 = load ptr, ptr %8, align 8, !tbaa !17
  %132 = load i64, ptr %9, align 8, !tbaa !13
  call void @llvm.memcpy.p0.p0.i64(ptr align 1 %130, ptr align 1 %131, i64 %132, i1 false)
  %133 = load i64, ptr %9, align 8, !tbaa !13
  %134 = load ptr, ptr %7, align 8, !tbaa !30
  %135 = getelementptr inbounds nuw %struct.mbedtls_cipher_context_t, ptr %134, i32 0, i32 6
  %136 = load i64, ptr %135, align 8, !tbaa !35
  %137 = add i64 %136, %133
  store i64 %137, ptr %135, align 8, !tbaa !35
  br label %138

138:                                              ; preds = %124, %121
  store i32 0, ptr %12, align 4, !tbaa !3
  br label %139

139:                                              ; preds = %138, %89, %106, %24
  %140 = load i32, ptr %12, align 4, !tbaa !3
  store i32 %140, ptr %6, align 4
  store i32 1, ptr %16, align 4
  br label %141

141:                                              ; preds = %139, %89
  call void @llvm.lifetime.end.p0(i64 8, ptr %14) #7
  call void @llvm.lifetime.end.p0(i64 8, ptr %13) #7
  call void @llvm.lifetime.end.p0(i64 4, ptr %12) #7
  %142 = load i32, ptr %6, align 4
  ret i32 %142
}

; Function Attrs: nounwind uwtable
define hidden i32 @mbedtls_psa_cipher_update(ptr noundef %0, ptr noundef %1, i64 noundef %2, ptr noundef %3, i64 noundef %4, ptr noundef %5) #0 {
  %7 = alloca i32, align 4
  %8 = alloca ptr, align 8
  %9 = alloca ptr, align 8
  %10 = alloca i64, align 8
  %11 = alloca ptr, align 8
  %12 = alloca i64, align 8
  %13 = alloca ptr, align 8
  %14 = alloca i32, align 4
  %15 = alloca i64, align 8
  %16 = alloca i32, align 4
  store ptr %0, ptr %8, align 8, !tbaa !12
  store ptr %1, ptr %9, align 8, !tbaa !17
  store i64 %2, ptr %10, align 8, !tbaa !13
  store ptr %3, ptr %11, align 8, !tbaa !17
  store i64 %4, ptr %12, align 8, !tbaa !13
  store ptr %5, ptr %13, align 8, !tbaa !9
  call void @llvm.lifetime.start.p0(i64 4, ptr %14) #7
  store i32 -151, ptr %14, align 4, !tbaa !3
  call void @llvm.lifetime.start.p0(i64 8, ptr %15) #7
  %17 = load ptr, ptr %8, align 8, !tbaa !12
  %18 = getelementptr inbounds nuw %struct.mbedtls_psa_cipher_operation_t, ptr %17, i32 0, i32 0
  %19 = load i32, ptr %18, align 8, !tbaa !24
  %20 = and i32 %19, 2139095040
  %21 = icmp eq i32 %20, 75497472
  br i1 %21, label %39, label %22

22:                                               ; preds = %6
  %23 = load ptr, ptr %8, align 8, !tbaa !12
  %24 = getelementptr inbounds nuw %struct.mbedtls_psa_cipher_operation_t, ptr %23, i32 0, i32 3
  %25 = getelementptr inbounds nuw %struct.mbedtls_cipher_context_t, ptr %24, i32 0, i32 6
  %26 = load i64, ptr %25, align 8, !tbaa !29
  %27 = load i64, ptr %10, align 8, !tbaa !13
  %28 = add i64 %26, %27
  %29 = load ptr, ptr %8, align 8, !tbaa !12
  %30 = getelementptr inbounds nuw %struct.mbedtls_psa_cipher_operation_t, ptr %29, i32 0, i32 2
  %31 = load i8, ptr %30, align 1, !tbaa !27
  %32 = zext i8 %31 to i64
  %33 = udiv i64 %28, %32
  %34 = load ptr, ptr %8, align 8, !tbaa !12
  %35 = getelementptr inbounds nuw %struct.mbedtls_psa_cipher_operation_t, ptr %34, i32 0, i32 2
  %36 = load i8, ptr %35, align 1, !tbaa !27
  %37 = zext i8 %36 to i64
  %38 = mul i64 %33, %37
  store i64 %38, ptr %15, align 8, !tbaa !13
  br label %41

39:                                               ; preds = %6
  %40 = load i64, ptr %10, align 8, !tbaa !13
  store i64 %40, ptr %15, align 8, !tbaa !13
  br label %41

41:                                               ; preds = %39, %22
  %42 = load i64, ptr %12, align 8, !tbaa !13
  %43 = load i64, ptr %15, align 8, !tbaa !13
  %44 = icmp ult i64 %42, %43
  br i1 %44, label %45, label %46

45:                                               ; preds = %41
  store i32 -138, ptr %7, align 4
  store i32 1, ptr %16, align 4
  br label %82

46:                                               ; preds = %41
  %47 = load ptr, ptr %8, align 8, !tbaa !12
  %48 = getelementptr inbounds nuw %struct.mbedtls_psa_cipher_operation_t, ptr %47, i32 0, i32 0
  %49 = load i32, ptr %48, align 8, !tbaa !24
  %50 = icmp eq i32 %49, 71320576
  br i1 %50, label %51, label %59

51:                                               ; preds = %46
  %52 = load ptr, ptr %8, align 8, !tbaa !12
  %53 = getelementptr inbounds nuw %struct.mbedtls_psa_cipher_operation_t, ptr %52, i32 0, i32 3
  %54 = load ptr, ptr %9, align 8, !tbaa !17
  %55 = load i64, ptr %10, align 8, !tbaa !13
  %56 = load ptr, ptr %11, align 8, !tbaa !17
  %57 = load ptr, ptr %13, align 8, !tbaa !9
  %58 = call i32 @psa_cipher_update_ecb(ptr noundef %53, ptr noundef %54, i64 noundef %55, ptr noundef %56, ptr noundef %57)
  store i32 %58, ptr %14, align 4, !tbaa !3
  br label %80

59:                                               ; preds = %46
  %60 = load i64, ptr %10, align 8, !tbaa !13
  %61 = icmp eq i64 %60, 0
  br i1 %61, label %62, label %64

62:                                               ; preds = %59
  %63 = load ptr, ptr %13, align 8, !tbaa !9
  store i64 0, ptr %63, align 8, !tbaa !13
  store i32 0, ptr %14, align 4, !tbaa !3
  br label %79

64:                                               ; preds = %59
  %65 = load ptr, ptr %8, align 8, !tbaa !12
  %66 = getelementptr inbounds nuw %struct.mbedtls_psa_cipher_operation_t, ptr %65, i32 0, i32 3
  %67 = load ptr, ptr %9, align 8, !tbaa !17
  %68 = load i64, ptr %10, align 8, !tbaa !13
  %69 = load ptr, ptr %11, align 8, !tbaa !17
  %70 = load ptr, ptr %13, align 8, !tbaa !9
  %71 = call i32 @mbedtls_cipher_update(ptr noundef %66, ptr noundef %67, i64 noundef %68, ptr noundef %69, ptr noundef %70)
  %72 = call i32 @mbedtls_to_psa_error(i32 noundef %71)
  store i32 %72, ptr %14, align 4, !tbaa !3
  %73 = load ptr, ptr %13, align 8, !tbaa !9
  %74 = load i64, ptr %73, align 8, !tbaa !13
  %75 = load i64, ptr %12, align 8, !tbaa !13
  %76 = icmp ugt i64 %74, %75
  br i1 %76, label %77, label %78

77:                                               ; preds = %64
  store i32 -151, ptr %7, align 4
  store i32 1, ptr %16, align 4
  br label %82

78:                                               ; preds = %64
  br label %79

79:                                               ; preds = %78, %62
  br label %80

80:                                               ; preds = %79, %51
  %81 = load i32, ptr %14, align 4, !tbaa !3
  store i32 %81, ptr %7, align 4
  store i32 1, ptr %16, align 4
  br label %82

82:                                               ; preds = %80, %77, %45
  call void @llvm.lifetime.end.p0(i64 8, ptr %15) #7
  call void @llvm.lifetime.end.p0(i64 4, ptr %14) #7
  %83 = load i32, ptr %7, align 4
  ret i32 %83
}