; Function Attrs: nounwind uwtable
define hidden i32 @mbedtls_psa_cipher_update(ptr noundef %0, ptr noundef %1, i64 noundef %2, ptr noundef %3, i64 noundef %4, ptr noundef %5) local_unnamed_addr #2 {
  %7 = alloca i64, align 8
  %8 = load i32, ptr %0, align 8, !tbaa !13
  %9 = and i32 %8, 2139095040
  %10 = icmp eq i32 %9, 75497472
  br i1 %10, label %20, label %11

11:                                               ; preds = %6
  %12 = getelementptr inbounds nuw i8, ptr %0, i64 56
  %13 = load i64, ptr %12, align 8, !tbaa !18
  %.fr28 = freeze i64 %13
  %14 = add i64 %.fr28, %2
  %15 = getelementptr inbounds nuw i8, ptr %0, i64 5
  %16 = load i8, ptr %15, align 1, !tbaa !16
  %17 = zext i8 %16 to i64
  %18 = urem i64 %14, %17
  %19 = sub nuw i64 %14, %18
  br label %20

20:                                               ; preds = %6, %11
  %.0 = phi i64 [ %19, %11 ], [ %2, %6 ]
  %21 = icmp ult i64 %4, %.0
  br i1 %21, label %78, label %22

22:                                               ; preds = %20
  %23 = icmp eq i32 %8, 71320576
  br i1 %23, label %24, label %69

24:                                               ; preds = %22
  %25 = getelementptr inbounds nuw i8, ptr %0, i64 8
  %26 = load ptr, ptr %25, align 8, !tbaa !19
  %27 = icmp eq ptr %26, null
  br i1 %27, label %mbedtls_cipher_info_get_block_size.exit.i, label %28

28:                                               ; preds = %24
  %29 = getelementptr inbounds nuw i8, ptr %26, i64 8
  %30 = load i32, ptr %29, align 8
  %31 = and i32 %30, 31
  %32 = zext nneg i32 %31 to i64
  br label %mbedtls_cipher_info_get_block_size.exit.i

mbedtls_cipher_info_get_block_size.exit.i:        ; preds = %28, %24
  %.0.i.i = phi i64 [ %32, %28 ], [ 0, %24 ]
  call void @llvm.lifetime.start.p0(i64 8, ptr nonnull %7) #8
  store i64 0, ptr %7, align 8, !tbaa !7
  store i64 0, ptr %5, align 8, !tbaa !7
  %33 = icmp eq i64 %2, 0
  br i1 %33, label %psa_cipher_update_ecb.exit, label %34

34:                                               ; preds = %mbedtls_cipher_info_get_block_size.exit.i
  %35 = getelementptr inbounds nuw i8, ptr %0, i64 56
  %36 = load i64, ptr %35, align 8, !tbaa !24
  %.not.i = icmp eq i64 %36, 0
  br i1 %.not.i, label %.thread.i, label %37

37:                                               ; preds = %34
  %38 = sub i64 %.0.i.i, %36
  %spec.select.i = tail call i64 @llvm.umin.i64(i64 %2, i64 %38)
  %39 = getelementptr inbounds nuw i8, ptr %0, i64 40
  %40 = getelementptr inbounds nuw [16 x i8], ptr %39, i64 0, i64 %36
  tail call void @llvm.memcpy.p0.p0.i64(ptr nonnull align 1 %40, ptr align 1 %1, i64 %spec.select.i, i1 false)
  %41 = sub i64 %2, %spec.select.i
  %42 = getelementptr inbounds nuw i8, ptr %1, i64 %spec.select.i
  %43 = load i64, ptr %35, align 8, !tbaa !24
  %44 = add i64 %43, %spec.select.i
  store i64 %44, ptr %35, align 8, !tbaa !24
  %45 = icmp eq i64 %44, %.0.i.i
  br i1 %45, label %46, label %.thread.i

46:                                               ; preds = %37
  %47 = call i32 @mbedtls_cipher_update(ptr noundef nonnull %25, ptr noundef nonnull %39, i64 noundef %.0.i.i, ptr noundef %3, ptr noundef nonnull %7) #8
  %48 = call i32 @mbedtls_to_psa_error(i32 noundef %47) #8
  %.not69.i = icmp eq i32 %48, 0
  br i1 %.not69.i, label %49, label %psa_cipher_update_ecb.exit

49:                                               ; preds = %46
  %50 = load i64, ptr %7, align 8, !tbaa !7
  %51 = getelementptr inbounds nuw i8, ptr %3, i64 %50
  %52 = load i64, ptr %5, align 8, !tbaa !7
  %53 = add i64 %52, %50
  store i64 %53, ptr %5, align 8, !tbaa !7
  store i64 0, ptr %35, align 8, !tbaa !24
  br label %.thread.i

.thread.i:                                        ; preds = %49, %37, %34
  %.059.i = phi i64 [ %2, %34 ], [ %41, %49 ], [ %41, %37 ]
  %.056.i = phi ptr [ %3, %34 ], [ %51, %49 ], [ %3, %37 ]
  %.054.i = phi ptr [ %1, %34 ], [ %42, %49 ], [ %42, %37 ]
  %.not7080.i = icmp ult i64 %.059.i, %.0.i.i
  br i1 %.not7080.i, label %._crit_edge.i, label %.lr.ph.i

.lr.ph.i:                                         ; preds = %.thread.i, %56
  %.15583.i = phi ptr [ %58, %56 ], [ %.054.i, %.thread.i ]
  %.382.i = phi ptr [ %60, %56 ], [ %.056.i, %.thread.i ]
  %.16081.i = phi i64 [ %57, %56 ], [ %.059.i, %.thread.i ]
  %54 = call i32 @mbedtls_cipher_update(ptr noundef nonnull %25, ptr noundef %.15583.i, i64 noundef %.0.i.i, ptr noundef %.382.i, ptr noundef nonnull %7) #8
  %55 = call i32 @mbedtls_to_psa_error(i32 noundef %54) #8
  %.not72.i = icmp eq i32 %55, 0
  br i1 %.not72.i, label %56, label %psa_cipher_update_ecb.exit

56:                                               ; preds = %.lr.ph.i
  %57 = sub i64 %.16081.i, %.0.i.i
  %58 = getelementptr inbounds nuw i8, ptr %.15583.i, i64 %.0.i.i
  %59 = load i64, ptr %7, align 8, !tbaa !7
  %60 = getelementptr inbounds nuw i8, ptr %.382.i, i64 %59
  %61 = load i64, ptr %5, align 8, !tbaa !7
  %62 = add i64 %61, %59
  store i64 %62, ptr %5, align 8, !tbaa !7
  %.not70.i = icmp ult i64 %57, %.0.i.i
  br i1 %.not70.i, label %._crit_edge.i, label %.lr.ph.i, !llvm.loop !25

._crit_edge.i:                                    ; preds = %56, %.thread.i
  %.160.lcssa.i = phi i64 [ %.059.i, %.thread.i ], [ %57, %56 ]
  %.155.lcssa.i = phi ptr [ %.054.i, %.thread.i ], [ %58, %56 ]
  %.not71.i = icmp eq i64 %.160.lcssa.i, 0
  br i1 %.not71.i, label %psa_cipher_update_ecb.exit, label %63

63:                                               ; preds = %._crit_edge.i
  %64 = getelementptr inbounds nuw i8, ptr %0, i64 40
  %65 = load i64, ptr %35, align 8, !tbaa !24
  %66 = getelementptr inbounds nuw [16 x i8], ptr %64, i64 0, i64 %65
  call void @llvm.memcpy.p0.p0.i64(ptr nonnull align 1 %66, ptr align 1 %.155.lcssa.i, i64 %.160.lcssa.i, i1 false)
  %67 = load i64, ptr %35, align 8, !tbaa !24
  %68 = add i64 %67, %.160.lcssa.i
  store i64 %68, ptr %35, align 8, !tbaa !24
  br label %psa_cipher_update_ecb.exit

psa_cipher_update_ecb.exit:                       ; preds = %.lr.ph.i, %mbedtls_cipher_info_get_block_size.exit.i, %46, %._crit_edge.i, %63
  %.053.i = phi i32 [ 0, %mbedtls_cipher_info_get_block_size.exit.i ], [ 0, %63 ], [ 0, %._crit_edge.i ], [ %48, %46 ], [ %55, %.lr.ph.i ]
  call void @llvm.lifetime.end.p0(i64 8, ptr nonnull %7) #8
  br label %78

69:                                               ; preds = %22
  %70 = icmp eq i64 %2, 0
  br i1 %70, label %71, label %72

71:                                               ; preds = %69
  store i64 0, ptr %5, align 8, !tbaa !7
  br label %78

72:                                               ; preds = %69
  %73 = getelementptr inbounds nuw i8, ptr %0, i64 8
  %74 = tail call i32 @mbedtls_cipher_update(ptr noundef nonnull %73, ptr noundef %1, i64 noundef %2, ptr noundef %3, ptr noundef %5) #8
  %75 = tail call i32 @mbedtls_to_psa_error(i32 noundef %74) #8
  %76 = load i64, ptr %5, align 8, !tbaa !7
  %77 = icmp ugt i64 %76, %4
  %spec.select = select i1 %77, i32 -151, i32 %75
  br label %78

78:                                               ; preds = %72, %psa_cipher_update_ecb.exit, %71, %20
  %.025 = phi i32 [ -138, %20 ], [ %.053.i, %psa_cipher_update_ecb.exit ], [ 0, %71 ], [ %spec.select, %72 ]
  ret i32 %.025
}